; ModuleID = 'source-C-CXX/49/1940.cpp'
source_filename = "source-C-CXX/49/1940.cpp"
target datalayout = "e-m:e-p270:32:32-p271:32:32-p272:64:64-i64:64-f80:128-n8:16:32:64-S128"
target triple = "x86_64-pc-linux-gnu"

%"class.std::ios_base::Init" = type { i8 }
%"class.std::basic_istream" = type { i32 (...)**, i64, %"class.std::basic_ios" }
%"class.std::basic_ios" = type { %"class.std::ios_base", %"class.std::basic_ostream"*, i8, i8, %"class.std::basic_streambuf"*, %"class.std::ctype"*, %"class.std::num_put"*, %"class.std::num_get"* }
%"class.std::ios_base" = type { i32 (...)**, i64, i64, i32, i32, i32, %"struct.std::ios_base::_Callback_list"*, %"struct.std::ios_base::_Words", [8 x %"struct.std::ios_base::_Words"], i32, %"struct.std::ios_base::_Words"*, %"class.std::locale" }
%"struct.std::ios_base::_Callback_list" = type { %"struct.std::ios_base::_Callback_list"*, void (i32, %"class.std::ios_base"*, i32)*, i32, i32 }
%"struct.std::ios_base::_Words" = type { i8*, i64 }
%"class.std::locale" = type { %"class.std::locale::_Impl"* }
%"class.std::locale::_Impl" = type { i32, %"class.std::locale::facet"**, i64, %"class.std::locale::facet"**, i8** }
%"class.std::locale::facet" = type <{ i32 (...)**, i32, [4 x i8] }>
%"class.std::basic_ostream" = type { i32 (...)**, %"class.std::basic_ios" }
%"class.std::basic_streambuf" = type { i32 (...)**, i8*, i8*, i8*, i8*, i8*, i8*, %"class.std::locale" }
%"class.std::ctype" = type <{ %"class.std::locale::facet.base", [4 x i8], %struct.__locale_struct*, i8, [7 x i8], i32*, i32*, i16*, i8, [256 x i8], [256 x i8], i8, [6 x i8] }>
%"class.std::locale::facet.base" = type <{ i32 (...)**, i32 }>
%struct.__locale_struct = type { [13 x %struct.__locale_data*], i16*, i32*, i32*, [13 x i8*] }
%struct.__locale_data = type opaque
%"class.std::num_put" = type { %"class.std::locale::facet.base", [4 x i8] }
%"class.std::num_get" = type { %"class.std::locale::facet.base", [4 x i8] }

@_ZStL8__ioinit = internal global %"class.std::ios_base::Init" zeroinitializer, align 1
@__dso_handle = external hidden global i8
@_ZSt3cin = external global %"class.std::basic_istream", align 8
@_ZSt4cout = external global %"class.std::basic_ostream", align 8
@llvm.global_ctors = appending global [1 x { i32, void ()*, i8* }] [{ i32, void ()*, i8* } { i32 65535, void ()* @_GLOBAL__sub_I_1940.cpp, i8* null }]

declare void @_ZNSt8ios_base4InitC1Ev(%"class.std::ios_base::Init"* nonnull align 1 dereferenceable(1)) unnamed_addr #0

; Function Attrs: nounwind
declare void @_ZNSt8ios_base4InitD1Ev(%"class.std::ios_base::Init"* nonnull align 1 dereferenceable(1)) unnamed_addr #1

; Function Attrs: nofree nounwind
declare i32 @__cxa_atexit(void (i8*)*, i8*, i8*) local_unnamed_addr #2

; Function Attrs: mustprogress norecurse sspstrong uwtable
define dso_local i32 @main() local_unnamed_addr #3 {
  %1 = alloca [12 x i32], align 16
  %2 = alloca i32, align 4
  %3 = bitcast [12 x i32]* %1 to i8*
  call void @llvm.lifetime.start.p0i8(i64 48, i8* nonnull %3) #7
  %4 = getelementptr inbounds [12 x i32], [12 x i32]* %1, i64 0, i64 0
  store i32 13, i32* %4, align 16
  %5 = bitcast i32* %2 to i8*
  call void @llvm.lifetime.start.p0i8(i64 4, i8* nonnull %5) #7
  %6 = getelementptr inbounds [12 x i32], [12 x i32]* %1, i64 0, i64 1
  %7 = bitcast i32* %6 to <4 x i32>*
  store <4 x i32> <i32 44, i32 72, i32 103, i32 133>, <4 x i32>* %7, align 4, !tbaa !5
  %8 = getelementptr inbounds [12 x i32], [12 x i32]* %1, i64 0, i64 5
  %9 = bitcast i32* %8 to <4 x i32>*
  store <4 x i32> <i32 164, i32 194, i32 225, i32 256>, <4 x i32>* %9, align 4, !tbaa !5
  %10 = getelementptr inbounds [12 x i32], [12 x i32]* %1, i64 0, i64 9
  store i32 286, i32* %10, align 4, !tbaa !5
  %11 = getelementptr inbounds [12 x i32], [12 x i32]* %1, i64 0, i64 10
  store i32 317, i32* %11, align 8, !tbaa !5
  %12 = getelementptr inbounds [12 x i32], [12 x i32]* %1, i64 0, i64 11
  store i32 347, i32* %12, align 4, !tbaa !5
  %13 = call nonnull align 8 dereferenceable(16) %"class.std::basic_istream"* @_ZNSirsERi(%"class.std::basic_istream"* nonnull align 8 dereferenceable(16) @_ZSt3cin, i32* nonnull align 4 dereferenceable(4) %2)
  br label %14

14:                                               ; preds = %57, %0
  %15 = phi i32 [ 13, %0 ], [ %59, %57 ]
  %16 = phi i64 [ 0, %0 ], [ %22, %57 ]
  %17 = add nsw i32 %15, -1
  %18 = load i32, i32* %2, align 4, !tbaa !5
  %19 = add nsw i32 %17, %18
  %20 = srem i32 %19, 7
  %21 = icmp eq i32 %20, 5
  %22 = add nuw nsw i64 %16, 1
  br i1 %21, label %23, label %55

23:                                               ; preds = %14
  %24 = trunc i64 %22 to i32
  %25 = call nonnull align 8 dereferenceable(8) %"class.std::basic_ostream"* @_ZNSolsEi(%"class.std::basic_ostream"* nonnull align 8 dereferenceable(8) @_ZSt4cout, i32 %24)
  %26 = bitcast %"class.std::basic_ostream"* %25 to i8**
  %27 = load i8*, i8** %26, align 8, !tbaa !9
  %28 = getelementptr i8, i8* %27, i64 -24
  %29 = bitcast i8* %28 to i64*
  %30 = load i64, i64* %29, align 8
  %31 = bitcast %"class.std::basic_ostream"* %25 to i8*
  %32 = add nsw i64 %30, 240
  %33 = getelementptr inbounds i8, i8* %31, i64 %32
  %34 = bitcast i8* %33 to %"class.std::ctype"**
  %35 = load %"class.std::ctype"*, %"class.std::ctype"** %34, align 8, !tbaa !11
  %36 = icmp eq %"class.std::ctype"* %35, null
  br i1 %36, label %37, label %38

37:                                               ; preds = %23
  call void @_ZSt16__throw_bad_castv() #8
  unreachable

38:                                               ; preds = %23
  %39 = getelementptr inbounds %"class.std::ctype", %"class.std::ctype"* %35, i64 0, i32 8
  %40 = load i8, i8* %39, align 8, !tbaa !15
  %41 = icmp eq i8 %40, 0
  br i1 %41, label %45, label %42

42:                                               ; preds = %38
  %43 = getelementptr inbounds %"class.std::ctype", %"class.std::ctype"* %35, i64 0, i32 9, i64 10
  %44 = load i8, i8* %43, align 1, !tbaa !17
  br label %51

45:                                               ; preds = %38
  call void @_ZNKSt5ctypeIcE13_M_widen_initEv(%"class.std::ctype"* nonnull align 8 dereferenceable(570) %35)
  %46 = bitcast %"class.std::ctype"* %35 to i8 (%"class.std::ctype"*, i8)***
  %47 = load i8 (%"class.std::ctype"*, i8)**, i8 (%"class.std::ctype"*, i8)*** %46, align 8, !tbaa !9
  %48 = getelementptr inbounds i8 (%"class.std::ctype"*, i8)*, i8 (%"class.std::ctype"*, i8)** %47, i64 6
  %49 = load i8 (%"class.std::ctype"*, i8)*, i8 (%"class.std::ctype"*, i8)** %48, align 8
  %50 = call signext i8 %49(%"class.std::ctype"* nonnull align 8 dereferenceable(570) %35, i8 signext 10)
  br label %51

51:                                               ; preds = %42, %45
  %52 = phi i8 [ %44, %42 ], [ %50, %45 ]
  %53 = call nonnull align 8 dereferenceable(8) %"class.std::basic_ostream"* @_ZNSo3putEc(%"class.std::basic_ostream"* nonnull align 8 dereferenceable(8) %25, i8 signext %52)
  %54 = call nonnull align 8 dereferenceable(8) %"class.std::basic_ostream"* @_ZNSo5flushEv(%"class.std::basic_ostream"* nonnull align 8 dereferenceable(8) %53)
  br label %55

55:                                               ; preds = %14, %51
  %56 = icmp eq i64 %22, 12
  br i1 %56, label %60, label %57, !llvm.loop !18

57:                                               ; preds = %55
  %58 = getelementptr inbounds [12 x i32], [12 x i32]* %1, i64 0, i64 %22
  %59 = load i32, i32* %58, align 4, !tbaa !5
  br label %14

60:                                               ; preds = %55
  call void @llvm.lifetime.end.p0i8(i64 4, i8* nonnull %5) #7
  call void @llvm.lifetime.end.p0i8(i64 48, i8* nonnull %3) #7
  ret i32 0
}

; Function Attrs: argmemonly mustprogress nofree nosync nounwind willreturn
declare void @llvm.lifetime.start.p0i8(i64 immarg, i8* nocapture) #4

declare nonnull align 8 dereferenceable(16) %"class.std::basic_istream"* @_ZNSirsERi(%"class.std::basic_istream"* nonnull align 8 dereferenceable(16), i32* nonnull align 4 dereferenceable(4)) local_unnamed_addr #0

declare nonnull align 8 dereferenceable(8) %"class.std::basic_ostream"* @_ZNSolsEi(%"class.std::basic_ostream"* nonnull align 8 dereferenceable(8), i32) local_unnamed_addr #0

; Function Attrs: argmemonly mustprogress nofree nosync nounwind willreturn
declare void @llvm.lifetime.end.p0i8(i64 immarg, i8* nocapture) #4

declare nonnull align 8 dereferenceable(8) %"class.std::basic_ostream"* @_ZNSo3putEc(%"class.std::basic_ostream"* nonnull align 8 dereferenceable(8), i8 signext) local_unnamed_addr #0

declare nonnull align 8 dereferenceable(8) %"class.std::basic_ostream"* @_ZNSo5flushEv(%"class.std::basic_ostream"* nonnull align 8 dereferenceable(8)) local_unnamed_addr #0

; Function Attrs: noreturn
declare void @_ZSt16__throw_bad_castv() local_unnamed_addr #5

declare void @_ZNKSt5ctypeIcE13_M_widen_initEv(%"class.std::ctype"* nonnull align 8 dereferenceable(570)) local_unnamed_addr #0

; Function Attrs: sspstrong uwtable
define internal void @_GLOBAL__sub_I_1940.cpp() #6 section ".text.startup" {
  tail call void @_ZNSt8ios_base4InitC1Ev(%"class.std::ios_base::Init"* nonnull align 1 dereferenceable(1) @_ZStL8__ioinit)
  %1 = tail call i32 @__cxa_atexit(void (i8*)* bitcast (void (%"class.std::ios_base::Init"*)* @_ZNSt8ios_base4InitD1Ev to void (i8*)*), i8* getelementptr inbounds (%"class.std::ios_base::Init", %"class.std::ios_base::Init"* @_ZStL8__ioinit, i64 0, i32 0), i8* nonnull @__dso_handle) #7
  ret void
}


!llvm.module.flags = !{!0, !1, !2, !3}
!llvm.ident = !{!4}

!0 = !{i32 1, !"wchar_size", i32 4}
!1 = !{i32 7, !"PIC Level", i32 2}
!2 = !{i32 7, !"PIE Level", i32 2}
!3 = !{i32 7, !"uwtable", i32 1}
!4 = !{!"clang version 13.0.0"}
!5 = !{!6, !6, i64 0}
!6 = !{!"int", !7, i64 0}
!7 = !{!"omnipotent char", !8, i64 0}
!8 = !{!"Simple C++ TBAA"}
!9 = !{!10, !10, i64 0}
!10 = !{!"vtable pointer", !8, i64 0}
!11 = !{!12, !13, i64 240}
!12 = !{!"_ZTSSt9basic_iosIcSt11char_traitsIcEE", !13, i64 216, !7, i64 224, !14, i64 225, !13, i64 232, !13, i64 240, !13, i64 248, !13, i64 256}
!13 = !{!"any pointer", !7, i64 0}
!14 = !{!"bool", !7, i64 0}
!15 = !{!16, !7, i64 56}
!16 = !{!"_ZTSSt5ctypeIcE", !13, i64 16, !14, i64 24, !13, i64 32, !13, i64 40, !13, i64 48, !7, i64 56, !7, i64 57, !7, i64 313, !7, i64 569}
!17 = !{!7, !7, i64 0}
!18 = distinct !{!18, !19}
!19 = !{!"llvm.loop.mustprogress"}
